; Function Attrs: mustprogress nofree norecurse nosync nounwind willreturn memory(read, inaccessiblemem: none) uwtable
define hidden noundef zeroext i1 @_ZNK4cvc58internal3smt11SetDefaults9usesSygusERKNS0_7OptionsE(ptr nocapture noundef nonnull readonly align 8 dereferenceable(17) %this, ptr nocapture noundef nonnull readonly align 8 dereferenceable(392) %opts) local_unnamed_addr #5 align 2 {
entry:
  %quantifiers.i = getelementptr inbounds i8, ptr %opts, i64 328
  %0 = load ptr, ptr %quantifiers.i, align 8
  %sygus.i = getelementptr inbounds i8, ptr %0, i64 363
  %1 = load i8, ptr %sygus.i, align 1
  %2 = and i8 %1, 1
  %tobool.not.i = icmp eq i8 %2, 0
  br i1 %tobool.not.i, label %if.end.i, label %return

if.end.i:                                         ; preds = %entry
  %d_isInternalSubsolver.i = getelementptr inbounds i8, ptr %this, i64 16
  %3 = load i8, ptr %d_isInternalSubsolver.i, align 8
  %4 = and i8 %3, 1
  %tobool2.not.i = icmp eq i8 %4, 0
  br i1 %tobool2.not.i, label %if.then3.i, label %if.end4

if.then3.i:                                       ; preds = %if.end.i
  %smt.i = getelementptr inbounds i8, ptr %opts, i64 352
  %5 = load ptr, ptr %smt.i, align 8
  %produceAbducts.i = getelementptr inbounds i8, ptr %5, i64 99
  %6 = load i8, ptr %produceAbducts.i, align 1
  %7 = and i8 %6, 1
  %tobool4.not.i = icmp eq i8 %7, 0
  br i1 %tobool4.not.i, label %lor.lhs.false.i, label %return

lor.lhs.false.i:                                  ; preds = %if.then3.i
  %produceInterpolants.i = getelementptr inbounds i8, ptr %5, i64 107
  %8 = load i8, ptr %produceInterpolants.i, align 1
  %9 = and i8 %8, 1
  %tobool6.not.i = icmp eq i8 %9, 0
  br i1 %tobool6.not.i, label %lor.lhs.false7.i, label %return

lor.lhs.false7.i:                                 ; preds = %lor.lhs.false.i
  %sygusInference.i = getelementptr inbounds i8, ptr %0, i64 461
  %10 = load i8, ptr %sygusInference.i, align 1
  %11 = and i8 %10, 1
  %tobool9.not.i = icmp eq i8 %11, 0
  br i1 %tobool9.not.i, label %land.lhs.true, label %return

land.lhs.true:                                    ; preds = %lor.lhs.false7.i
  %sygusInst = getelementptr inbounds i8, ptr %0, i64 463
  %12 = load i8, ptr %sygusInst, align 1
  %13 = and i8 %12, 1
  %tobool2.not = icmp eq i8 %13, 0
  br i1 %tobool2.not, label %if.end4, label %return

if.end4:                                          ; preds = %if.end.i, %land.lhs.true
  br label %return

return:                                           ; preds = %if.then3.i, %lor.lhs.false.i, %lor.lhs.false7.i, %entry, %land.lhs.true, %if.end4
  %retval.0 = phi i1 [ false, %if.end4 ], [ true, %land.lhs.true ], [ true, %entry ], [ true, %lor.lhs.false7.i ], [ true, %lor.lhs.false.i ], [ true, %if.then3.i ]
  ret i1 %retval.0
}